target datalayout = "e-m:e-p270:32:32-p271:32:32-p272:64:64-i64:64-i128:128-f80:128-n8:16:32:64-S128"
target triple = "x86_64-pc-linux-gnu"

@.str.101 = private unnamed_addr constant [33 x i8] c"Interpolant computation failed.\0A\00", align 1

; Function Attrs: nounwind uwtable
define ptr @Gia_ManInterOne(ptr noundef %0, ptr noundef %1, i32 noundef %2) #0 {
  %4 = alloca ptr, align 8
  %5 = alloca ptr, align 8
  %6 = alloca ptr, align 8
  %7 = alloca i32, align 4
  %8 = alloca ptr, align 8
  %9 = alloca ptr, align 8
  %10 = alloca ptr, align 8
  %11 = alloca ptr, align 8
  store ptr %0, ptr %5, align 8
  store ptr %1, ptr %6, align 8
  store i32 %2, ptr %7, align 4
  %12 = load ptr, ptr %5, align 8
  %13 = call ptr @Gia_ManToAigSimple(ptr noundef %12)
  store ptr %13, ptr %9, align 8
  %14 = load ptr, ptr %9, align 8
  %15 = icmp eq ptr %14, null
  br i1 %15, label %16, label %17

16:                                               ; preds = %3
  store ptr null, ptr %4, align 8
  br label %38

17:                                               ; preds = %3
  %18 = load ptr, ptr %6, align 8
  %19 = call ptr @Gia_ManToAigSimple(ptr noundef %18)
  store ptr %19, ptr %10, align 8
  %20 = load ptr, ptr %10, align 8
  %21 = icmp eq ptr %20, null
  br i1 %21, label %22, label %23

22:                                               ; preds = %17
  store ptr null, ptr %4, align 8
  br label %38

23:                                               ; preds = %17
  %24 = load ptr, ptr %9, align 8
  %25 = load ptr, ptr %10, align 8
  %26 = load i32, ptr %7, align 4
  %27 = call ptr @Aig_ManInter(ptr noundef %24, ptr noundef %25, i32 noundef 0, i32 noundef %26)
  store ptr %27, ptr %11, align 8
  %28 = load ptr, ptr %11, align 8
  %29 = icmp eq ptr %28, null
  br i1 %29, label %30, label %31

30:                                               ; preds = %23
  call void (i32, ptr, ...) @Abc_Print(i32 noundef 1, ptr noundef @.str.101)
  store ptr null, ptr %4, align 8
  br label %38

31:                                               ; preds = %23
  %32 = load ptr, ptr %9, align 8
  call void @Aig_ManStop(ptr noundef %32)
  %33 = load ptr, ptr %10, align 8
  call void @Aig_ManStop(ptr noundef %33)
  %34 = load ptr, ptr %11, align 8
  %35 = call ptr @Gia_ManFromAigSimple(ptr noundef %34)
  store ptr %35, ptr %8, align 8
  %36 = load ptr, ptr %11, align 8
  call void @Aig_ManStop(ptr noundef %36)
  %37 = load ptr, ptr %8, align 8
  store ptr %37, ptr %4, align 8
  br label %38

38:                                               ; preds = %31, %30, %22, %16
  %39 = load ptr, ptr %4, align 8
  ret ptr %39
}