; Function Attrs: nounwind uwtable
define ptr @Gia_ManInterOne(ptr noundef %0, ptr noundef %1, i32 noundef %2) local_unnamed_addr #1 {
  %4 = tail call ptr @Gia_ManToAigSimple(ptr noundef %0) #19
  %5 = icmp eq ptr %4, null
  br i1 %5, label %15, label %6

6:                                                ; preds = %3
  %7 = tail call ptr @Gia_ManToAigSimple(ptr noundef %1) #19
  %8 = icmp eq ptr %7, null
  br i1 %8, label %15, label %9

9:                                                ; preds = %6
  %10 = tail call ptr @Aig_ManInter(ptr noundef nonnull %4, ptr noundef nonnull %7, i32 noundef 0, i32 noundef %2) #19
  %11 = icmp eq ptr %10, null
  br i1 %11, label %12, label %13

12:                                               ; preds = %9
  tail call void (i32, ptr, ...) @Abc_Print(i32 poison, ptr noundef nonnull @.str.101)
  br label %15

13:                                               ; preds = %9
  tail call void @Aig_ManStop(ptr noundef nonnull %4) #19
  tail call void @Aig_ManStop(ptr noundef nonnull %7) #19
  %14 = tail call ptr @Gia_ManFromAigSimple(ptr noundef nonnull %10) #19
  tail call void @Aig_ManStop(ptr noundef nonnull %10) #19
  br label %15

15:                                               ; preds = %6, %3, %13, %12
  %.0 = phi ptr [ null, %12 ], [ %14, %13 ], [ null, %3 ], [ null, %6 ]
  ret ptr %.0
}